target datalayout = "e-m:e-p270:32:32-p271:32:32-p272:64:64-i64:64-i128:128-f80:128-n8:16:32:64-S128"
target triple = "x86_64-pc-linux-gnu"

%struct.AVFilterContext = type { ptr, ptr, ptr, ptr, ptr, i32, ptr, ptr, i32, ptr, ptr, i32, i32, ptr, ptr, ptr, ptr, i32, ptr, i32, i32 }
%struct.FormatContext = type { ptr, ptr, ptr, ptr, ptr, ptr, ptr }

; Function Attrs: nounwind uwtable
define internal i32 @query_formats(ptr noundef %0, ptr noundef %1, ptr noundef %2) #1 {
  %4 = alloca i32, align 4
  %5 = alloca ptr, align 8
  %6 = alloca ptr, align 8
  %7 = alloca ptr, align 8
  %8 = alloca ptr, align 8
  %9 = alloca i32, align 4
  %10 = alloca i32, align 4
  store ptr %0, ptr %5, align 8, !tbaa !4
  store ptr %1, ptr %6, align 8, !tbaa !42
  store ptr %2, ptr %7, align 8, !tbaa !42
  call void @llvm.lifetime.start.p0(i64 8, ptr %8) #7
  %11 = load ptr, ptr %5, align 8, !tbaa !4
  %12 = getelementptr inbounds nuw %struct.AVFilterContext, ptr %11, i32 0, i32 9
  %13 = load ptr, ptr %12, align 8, !tbaa !9
  store ptr %13, ptr %8, align 8, !tbaa !22
  call void @llvm.lifetime.start.p0(i64 4, ptr %9) #7
  %14 = load ptr, ptr %8, align 8, !tbaa !22
  %15 = getelementptr inbounds nuw %struct.FormatContext, ptr %14, i32 0, i32 4
  %16 = load ptr, ptr %15, align 8, !tbaa !39
  %17 = icmp ne ptr %16, null
  br i1 %17, label %18, label %27

18:                                               ; preds = %3
  %19 = load ptr, ptr %5, align 8, !tbaa !4
  %20 = load ptr, ptr %6, align 8, !tbaa !42
  %21 = load ptr, ptr %7, align 8, !tbaa !42
  %22 = load ptr, ptr %8, align 8, !tbaa !22
  %23 = getelementptr inbounds nuw %struct.FormatContext, ptr %22, i32 0, i32 4
  %24 = load ptr, ptr %23, align 8, !tbaa !39
  %25 = call i32 @ff_set_common_formats2(ptr noundef %19, ptr noundef %20, ptr noundef %21, ptr noundef %24)
  store i32 %25, ptr %9, align 4, !tbaa !29
  %26 = icmp slt i32 %25, 0
  br i1 %26, label %55, label %27

27:                                               ; preds = %18, %3
  %28 = load ptr, ptr %8, align 8, !tbaa !22
  %29 = getelementptr inbounds nuw %struct.FormatContext, ptr %28, i32 0, i32 5
  %30 = load ptr, ptr %29, align 8, !tbaa !40
  %31 = icmp ne ptr %30, null
  br i1 %31, label %32, label %41

32:                                               ; preds = %27
  %33 = load ptr, ptr %5, align 8, !tbaa !4
  %34 = load ptr, ptr %6, align 8, !tbaa !42
  %35 = load ptr, ptr %7, align 8, !tbaa !42
  %36 = load ptr, ptr %8, align 8, !tbaa !22
  %37 = getelementptr inbounds nuw %struct.FormatContext, ptr %36, i32 0, i32 5
  %38 = load ptr, ptr %37, align 8, !tbaa !40
  %39 = call i32 @ff_set_common_color_spaces2(ptr noundef %33, ptr noundef %34, ptr noundef %35, ptr noundef %38)
  store i32 %39, ptr %9, align 4, !tbaa !29
  %40 = icmp slt i32 %39, 0
  br i1 %40, label %55, label %41

41:                                               ; preds = %32, %27
  %42 = load ptr, ptr %8, align 8, !tbaa !22
  %43 = getelementptr inbounds nuw %struct.FormatContext, ptr %42, i32 0, i32 6
  %44 = load ptr, ptr %43, align 8, !tbaa !41
  %45 = icmp ne ptr %44, null
  br i1 %45, label %46, label %57

46:                                               ; preds = %41
  %47 = load ptr, ptr %5, align 8, !tbaa !4
  %48 = load ptr, ptr %6, align 8, !tbaa !42
  %49 = load ptr, ptr %7, align 8, !tbaa !42
  %50 = load ptr, ptr %8, align 8, !tbaa !22
  %51 = getelementptr inbounds nuw %struct.FormatContext, ptr %50, i32 0, i32 6
  %52 = load ptr, ptr %51, align 8, !tbaa !41
  %53 = call i32 @ff_set_common_color_ranges2(ptr noundef %47, ptr noundef %48, ptr noundef %49, ptr noundef %52)
  store i32 %53, ptr %9, align 4, !tbaa !29
  %54 = icmp slt i32 %53, 0
  br i1 %54, label %55, label %57

55:                                               ; preds = %46, %32, %18
  %56 = load i32, ptr %9, align 4, !tbaa !29
  store i32 %56, ptr %4, align 4
  store i32 1, ptr %10, align 4
  br label %58

57:                                               ; preds = %46, %41
  store i32 0, ptr %4, align 4
  store i32 1, ptr %10, align 4
  br label %58

58:                                               ; preds = %57, %55
  call void @llvm.lifetime.end.p0(i64 4, ptr %9) #7
  call void @llvm.lifetime.end.p0(i64 8, ptr %8) #7
  %59 = load i32, ptr %4, align 4
  ret i32 %59
}