; Function Attrs: nounwind uwtable
define internal range(i32 -2147483648, 1) i32 @query_formats(ptr noundef %0, ptr noundef %1, ptr noundef %2) #1 {
  %4 = getelementptr inbounds nuw i8, ptr %0, i64 72
  %5 = load ptr, ptr %4, align 8, !tbaa !4
  %6 = getelementptr inbounds nuw i8, ptr %5, i64 32
  %7 = load ptr, ptr %6, align 8, !tbaa !34
  %.not = icmp eq ptr %7, null
  br i1 %.not, label %11, label %8

8:                                                ; preds = %3
  %9 = tail call i32 @ff_set_common_formats2(ptr noundef nonnull %0, ptr noundef %1, ptr noundef %2, ptr noundef nonnull %7) #8
  %10 = icmp slt i32 %9, 0
  br i1 %10, label %24, label %11

11:                                               ; preds = %8, %3
  %12 = getelementptr inbounds nuw i8, ptr %5, i64 40
  %13 = load ptr, ptr %12, align 8, !tbaa !35
  %.not24 = icmp eq ptr %13, null
  br i1 %.not24, label %17, label %14

14:                                               ; preds = %11
  %15 = tail call i32 @ff_set_common_color_spaces2(ptr noundef nonnull %0, ptr noundef %1, ptr noundef %2, ptr noundef nonnull %13) #8
  %16 = icmp slt i32 %15, 0
  br i1 %16, label %24, label %17

17:                                               ; preds = %14, %11
  %18 = getelementptr inbounds nuw i8, ptr %5, i64 48
  %19 = load ptr, ptr %18, align 8, !tbaa !36
  %.not25 = icmp eq ptr %19, null
  br i1 %.not25, label %23, label %20

20:                                               ; preds = %17
  %21 = tail call i32 @ff_set_common_color_ranges2(ptr noundef nonnull %0, ptr noundef %1, ptr noundef %2, ptr noundef nonnull %19) #8
  %22 = icmp slt i32 %21, 0
  br i1 %22, label %24, label %23

23:                                               ; preds = %20, %17
  br label %24

24:                                               ; preds = %8, %14, %20, %23
  %.017 = phi i32 [ 0, %23 ], [ %9, %8 ], [ %15, %14 ], [ %21, %20 ]
  ret i32 %.017
}